; ModuleID = '55/538.c'
source_filename = "55/538.c"
target datalayout = "e-m:e-p270:32:32-p271:32:32-p272:64:64-i64:64-f80:128-n8:16:32:64-S128"
target triple = "x86_64-pc-linux-gnu"

@.str = private unnamed_addr constant [9 x i8] c"%d %s %d\00", align 1
@.str.1 = private unnamed_addr constant [3 x i8] c"%c\00", align 1

; Function Attrs: noinline nounwind uwtable
define dso_local i32 @main() #0 {
  %1 = alloca i32, align 4
  %2 = alloca [100 x i8], align 16
  %3 = alloca i32, align 4
  %4 = alloca i32, align 4
  %5 = alloca i32, align 4
  %6 = alloca [100 x i32], align 16
  %7 = alloca [100 x i32], align 16
  %8 = alloca i32, align 4
  %9 = alloca i64, align 8
  store i32 0, i32* %1, align 4
  store i64 0, i64* %9, align 8
  %10 = getelementptr inbounds [100 x i8], [100 x i8]* %2, i64 0, i64 0
  %11 = call i32 (i8*, ...) @__isoc99_scanf(i8* getelementptr inbounds ([9 x i8], [9 x i8]* @.str, i64 0, i64 0), i32* %4, i8* %10, i32* %5)
  %12 = getelementptr inbounds [100 x i8], [100 x i8]* %2, i64 0, i64 0
  %13 = call i64 @strlen(i8* %12) #3
  %14 = trunc i64 %13 to i32
  store i32 %14, i32* %8, align 4
  store i32 0, i32* %3, align 4
  br label %15

15:                                               ; preds = %102, %0
  %16 = load i32, i32* %3, align 4
  %17 = load i32, i32* %8, align 4
  %18 = icmp slt i32 %16, %17
  br i1 %18, label %19, label %105

19:                                               ; preds = %15
  %20 = load i32, i32* %3, align 4
  %21 = sext i32 %20 to i64
  %22 = getelementptr inbounds [100 x i8], [100 x i8]* %2, i64 0, i64 %21
  %23 = load i8, i8* %22, align 1
  %24 = sext i8 %23 to i32
  %25 = icmp sge i32 %24, 97
  br i1 %25, label %26, label %46

26:                                               ; preds = %19
  %27 = load i32, i32* %3, align 4
  %28 = sext i32 %27 to i64
  %29 = getelementptr inbounds [100 x i8], [100 x i8]* %2, i64 0, i64 %28
  %30 = load i8, i8* %29, align 1
  %31 = sext i8 %30 to i32
  %32 = icmp sle i32 %31, 122
  br i1 %32, label %33, label %46

33:                                               ; preds = %26
  %34 = load i32, i32* %4, align 4
  %35 = sext i32 %34 to i64
  %36 = load i64, i64* %9, align 8
  %37 = mul nsw i64 %35, %36
  %38 = load i32, i32* %3, align 4
  %39 = sext i32 %38 to i64
  %40 = getelementptr inbounds [100 x i8], [100 x i8]* %2, i64 0, i64 %39
  %41 = load i8, i8* %40, align 1
  %42 = sext i8 %41 to i64
  %43 = add nsw i64 %37, %42
  %44 = add nsw i64 %43, 10
  %45 = sub nsw i64 %44, 97
  store i64 %45, i64* %9, align 8
  br label %101

46:                                               ; preds = %26, %19
  %47 = load i32, i32* %3, align 4
  %48 = sext i32 %47 to i64
  %49 = getelementptr inbounds [100 x i8], [100 x i8]* %2, i64 0, i64 %48
  %50 = load i8, i8* %49, align 1
  %51 = sext i8 %50 to i32
  %52 = icmp sge i32 %51, 48
  br i1 %52, label %53, label %72

53:                                               ; preds = %46
  %54 = load i32, i32* %3, align 4
  %55 = sext i32 %54 to i64
  %56 = getelementptr inbounds [100 x i8], [100 x i8]* %2, i64 0, i64 %55
  %57 = load i8, i8* %56, align 1
  %58 = sext i8 %57 to i32
  %59 = icmp sle i32 %58, 57
  br i1 %59, label %60, label %72

60:                                               ; preds = %53
  %61 = load i32, i32* %4, align 4
  %62 = sext i32 %61 to i64
  %63 = load i64, i64* %9, align 8
  %64 = mul nsw i64 %62, %63
  %65 = load i32, i32* %3, align 4
  %66 = sext i32 %65 to i64
  %67 = getelementptr inbounds [100 x i8], [100 x i8]* %2, i64 0, i64 %66
  %68 = load i8, i8* %67, align 1
  %69 = sext i8 %68 to i64
  %70 = add nsw i64 %64, %69
  %71 = sub nsw i64 %70, 48
  store i64 %71, i64* %9, align 8
  br label %100

72:                                               ; preds = %53, %46
  %73 = load i32, i32* %3, align 4
  %74 = sext i32 %73 to i64
  %75 = getelementptr inbounds [100 x i8], [100 x i8]* %2, i64 0, i64 %74
  %76 = load i8, i8* %75, align 1
  %77 = sext i8 %76 to i32
  %78 = icmp sge i32 %77, 65
  br i1 %78, label %79, label %99

79:                                               ; preds = %72
  %80 = load i32, i32* %3, align 4
  %81 = sext i32 %80 to i64
  %82 = getelementptr inbounds [100 x i8], [100 x i8]* %2, i64 0, i64 %81
  %83 = load i8, i8* %82, align 1
  %84 = sext i8 %83 to i32
  %85 = icmp sle i32 %84, 90
  br i1 %85, label %86, label %99

86:                                               ; preds = %79
  %87 = load i32, i32* %4, align 4
  %88 = sext i32 %87 to i64
  %89 = load i64, i64* %9, align 8
  %90 = mul nsw i64 %88, %89
  %91 = load i32, i32* %3, align 4
  %92 = sext i32 %91 to i64
  %93 = getelementptr inbounds [100 x i8], [100 x i8]* %2, i64 0, i64 %92
  %94 = load i8, i8* %93, align 1
  %95 = sext i8 %94 to i64
  %96 = add nsw i64 %90, %95
  %97 = sub nsw i64 %96, 65
  %98 = add nsw i64 %97, 10
  store i64 %98, i64* %9, align 8
  br label %99

99:                                               ; preds = %86, %79, %72
  br label %100

100:                                              ; preds = %99, %60
  br label %101

101:                                              ; preds = %100, %33
  br label %102

102:                                              ; preds = %101
  %103 = load i32, i32* %3, align 4
  %104 = add nsw i32 %103, 1
  store i32 %104, i32* %3, align 4
  br label %15

105:                                              ; preds = %15
  store i32 0, i32* %3, align 4
  br label %106

106:                                              ; preds = %124, %105
  %107 = load i64, i64* %9, align 8
  %108 = load i32, i32* %5, align 4
  %109 = sext i32 %108 to i64
  %110 = icmp sge i64 %107, %109
  br i1 %110, label %111, label %127

111:                                              ; preds = %106
  %112 = load i64, i64* %9, align 8
  %113 = load i32, i32* %5, align 4
  %114 = sext i32 %113 to i64
  %115 = srem i64 %112, %114
  %116 = trunc i64 %115 to i32
  %117 = load i32, i32* %3, align 4
  %118 = sext i32 %117 to i64
  %119 = getelementptr inbounds [100 x i32], [100 x i32]* %7, i64 0, i64 %118
  store i32 %116, i32* %119, align 4
  %120 = load i64, i64* %9, align 8
  %121 = load i32, i32* %5, align 4
  %122 = sext i32 %121 to i64
  %123 = sdiv i64 %120, %122
  store i64 %123, i64* %9, align 8
  br label %124

124:                                              ; preds = %111
  %125 = load i32, i32* %3, align 4
  %126 = add nsw i32 %125, 1
  store i32 %126, i32* %3, align 4
  br label %106

127:                                              ; preds = %106
  %128 = load i64, i64* %9, align 8
  %129 = load i32, i32* %5, align 4
  %130 = sext i32 %129 to i64
  %131 = srem i64 %128, %130
  %132 = trunc i64 %131 to i32
  %133 = load i32, i32* %3, align 4
  %134 = sext i32 %133 to i64
  %135 = getelementptr inbounds [100 x i32], [100 x i32]* %7, i64 0, i64 %134
  store i32 %132, i32* %135, align 4
  br label %136

136:                                              ; preds = %189, %127
  %137 = load i32, i32* %3, align 4
  %138 = icmp sge i32 %137, 0
  br i1 %138, label %139, label %192

139:                                              ; preds = %136
  %140 = load i32, i32* %3, align 4
  %141 = sext i32 %140 to i64
  %142 = getelementptr inbounds [100 x i32], [100 x i32]* %7, i64 0, i64 %141
  %143 = load i32, i32* %142, align 4
  %144 = icmp sge i32 %143, 0
  br i1 %144, label %145, label %160

145:                                              ; preds = %139
  %146 = load i32, i32* %3, align 4
  %147 = sext i32 %146 to i64
  %148 = getelementptr inbounds [100 x i32], [100 x i32]* %7, i64 0, i64 %147
  %149 = load i32, i32* %148, align 4
  %150 = icmp sle i32 %149, 9
  br i1 %150, label %151, label %160

151:                                              ; preds = %145
  %152 = load i32, i32* %3, align 4
  %153 = sext i32 %152 to i64
  %154 = getelementptr inbounds [100 x i32], [100 x i32]* %7, i64 0, i64 %153
  %155 = load i32, i32* %154, align 4
  %156 = add nsw i32 %155, 48
  %157 = load i32, i32* %3, align 4
  %158 = sext i32 %157 to i64
  %159 = getelementptr inbounds [100 x i32], [100 x i32]* %6, i64 0, i64 %158
  store i32 %156, i32* %159, align 4
  br label %183

160:                                              ; preds = %145, %139
  %161 = load i32, i32* %3, align 4
  %162 = sext i32 %161 to i64
  %163 = getelementptr inbounds [100 x i32], [100 x i32]* %7, i64 0, i64 %162
  %164 = load i32, i32* %163, align 4
  %165 = icmp sge i32 %164, 10
  br i1 %165, label %166, label %182

166:                                              ; preds = %160
  %167 = load i32, i32* %3, align 4
  %168 = sext i32 %167 to i64
  %169 = getelementptr inbounds [100 x i32], [100 x i32]* %7, i64 0, i64 %168
  %170 = load i32, i32* %169, align 4
  %171 = icmp slt i32 %170, 26
  br i1 %171, label %172, label %182

172:                                              ; preds = %166
  %173 = load i32, i32* %3, align 4
  %174 = sext i32 %173 to i64
  %175 = getelementptr inbounds [100 x i32], [100 x i32]* %7, i64 0, i64 %174
  %176 = load i32, i32* %175, align 4
  %177 = add nsw i32 %176, 65
  %178 = sub nsw i32 %177, 10
  %179 = load i32, i32* %3, align 4
  %180 = sext i32 %179 to i64
  %181 = getelementptr inbounds [100 x i32], [100 x i32]* %6, i64 0, i64 %180
  store i32 %178, i32* %181, align 4
  br label %182

182:                                              ; preds = %172, %166, %160
  br label %183

183:                                              ; preds = %182, %151
  %184 = load i32, i32* %3, align 4
  %185 = sext i32 %184 to i64
  %186 = getelementptr inbounds [100 x i32], [100 x i32]* %6, i64 0, i64 %185
  %187 = load i32, i32* %186, align 4
  %188 = call i32 (i8*, ...) @printf(i8* getelementptr inbounds ([3 x i8], [3 x i8]* @.str.1, i64 0, i64 0), i32 %187)
  br label %189

189:                                              ; preds = %183
  %190 = load i32, i32* %3, align 4
  %191 = add nsw i32 %190, -1
  store i32 %191, i32* %3, align 4
  br label %136

192:                                              ; preds = %136
  ret i32 0
}

declare dso_local i32 @__isoc99_scanf(i8*, ...) #1

; Function Attrs: nounwind readonly
declare dso_local i64 @strlen(i8*) #2

declare dso_local i32 @printf(i8*, ...) #1


!llvm.module.flags = !{!0}
!llvm.ident = !{!1}

!0 = !{i32 1, !"wchar_size", i32 4}
!1 = !{!"clang version 10.0.0-4ubuntu1 "}
